; Function Attrs: nounwind uwtable
define nonnull ptr @l_List_beq___at_Lean_beqExternAttrData____x40_Lean_Compiler_ExternAttr___hyg_382____spec__1___boxed(ptr noundef %0, ptr noundef %1) local_unnamed_addr #0 {
  br label %3

3:                                                ; preds = %32, %2
  %.020.i = phi ptr [ %1, %2 ], [ %40, %32 ]
  %.018.i = phi ptr [ %0, %2 ], [ %36, %32 ]
  %4 = ptrtoint ptr %.018.i to i64
  %5 = and i64 %4, 1
  %.not.i.i = icmp eq i64 %5, 0
  br i1 %.not.i.i, label %9, label %6

6:                                                ; preds = %3
  %7 = lshr i64 %4, 1
  %8 = trunc i64 %7 to i32
  br label %lean_obj_tag.exit.i

9:                                                ; preds = %3
  %10 = getelementptr i8, ptr %.018.i, i64 4
  %.val.i.i = load i32, ptr %10, align 4
  %11 = lshr i32 %.val.i.i, 24
  br label %lean_obj_tag.exit.i

lean_obj_tag.exit.i:                              ; preds = %9, %6
  %.0.i.i = phi i32 [ %8, %6 ], [ %11, %9 ]
  %12 = icmp eq i32 %.0.i.i, 0
  %13 = ptrtoint ptr %.020.i to i64
  %14 = and i64 %13, 1
  %.not.i23.i = icmp eq i64 %14, 0
  br i1 %12, label %15, label %24

15:                                               ; preds = %lean_obj_tag.exit.i
  br i1 %.not.i23.i, label %19, label %16

16:                                               ; preds = %15
  %17 = lshr i64 %13, 1
  %18 = trunc i64 %17 to i32
  br label %lean_obj_tag.exit26.i

19:                                               ; preds = %15
  %20 = getelementptr i8, ptr %.020.i, i64 4
  %.val.i25.i = load i32, ptr %20, align 4
  %21 = lshr i32 %.val.i25.i, 24
  br label %lean_obj_tag.exit26.i

lean_obj_tag.exit26.i:                            ; preds = %19, %16
  %.0.i24.i = phi i32 [ %18, %16 ], [ %21, %19 ]
  %22 = icmp eq i32 %.0.i24.i, 0
  %23 = select i1 %22, i64 3, i64 1
  br label %l_List_beq___at_Lean_beqExternAttrData____x40_Lean_Compiler_ExternAttr___hyg_382____spec__1.exit

24:                                               ; preds = %lean_obj_tag.exit.i
  br i1 %.not.i23.i, label %28, label %25

25:                                               ; preds = %24
  %26 = lshr i64 %13, 1
  %27 = trunc i64 %26 to i32
  br label %lean_obj_tag.exit30.i

28:                                               ; preds = %24
  %29 = getelementptr i8, ptr %.020.i, i64 4
  %.val.i29.i = load i32, ptr %29, align 4
  %30 = lshr i32 %.val.i29.i, 24
  br label %lean_obj_tag.exit30.i

lean_obj_tag.exit30.i:                            ; preds = %28, %25
  %.0.i28.i = phi i32 [ %27, %25 ], [ %30, %28 ]
  %31 = icmp eq i32 %.0.i28.i, 0
  br i1 %31, label %l_List_beq___at_Lean_beqExternAttrData____x40_Lean_Compiler_ExternAttr___hyg_382____spec__1.exit, label %32

32:                                               ; preds = %lean_obj_tag.exit30.i
  %33 = getelementptr inbounds nuw i8, ptr %.018.i, i64 8
  %34 = load ptr, ptr %33, align 8, !tbaa !4
  %35 = getelementptr inbounds nuw i8, ptr %.018.i, i64 16
  %36 = load ptr, ptr %35, align 8, !tbaa !4
  %37 = getelementptr inbounds nuw i8, ptr %.020.i, i64 8
  %38 = load ptr, ptr %37, align 8, !tbaa !4
  %39 = getelementptr inbounds nuw i8, ptr %.020.i, i64 16
  %40 = load ptr, ptr %39, align 8, !tbaa !4
  %41 = tail call zeroext i8 @l_Lean_beqExternEntry____x40_Lean_Compiler_ExternAttr___hyg_66_(ptr noundef %34, ptr noundef %38)
  %42 = icmp eq i8 %41, 0
  br i1 %42, label %l_List_beq___at_Lean_beqExternAttrData____x40_Lean_Compiler_ExternAttr___hyg_382____spec__1.exit, label %3

l_List_beq___at_Lean_beqExternAttrData____x40_Lean_Compiler_ExternAttr___hyg_382____spec__1.exit: ; preds = %lean_obj_tag.exit30.i, %32, %lean_obj_tag.exit26.i
  %.1.i = phi i64 [ %23, %lean_obj_tag.exit26.i ], [ 1, %32 ], [ 1, %lean_obj_tag.exit30.i ]
  %43 = ptrtoint ptr %1 to i64
  %44 = and i64 %43, 1
  %.not = icmp eq i64 %44, 0
  br i1 %.not, label %45, label %lean_dec.exit5

45:                                               ; preds = %l_List_beq___at_Lean_beqExternAttrData____x40_Lean_Compiler_ExternAttr___hyg_382____spec__1.exit
  %46 = load i32, ptr %1, align 4, !tbaa !10
  %47 = icmp sgt i32 %46, 1
  br i1 %47, label %48, label %50, !prof !13

48:                                               ; preds = %45
  %49 = add nsw i32 %46, -1
  store i32 %49, ptr %1, align 4, !tbaa !10
  br label %lean_dec.exit5

50:                                               ; preds = %45
  %.not.i = icmp eq i32 %46, 0
  br i1 %.not.i, label %lean_dec.exit5, label %51

51:                                               ; preds = %50
  tail call void @lean_dec_ref_cold(ptr noundef nonnull %1) #6
  br label %lean_dec.exit5

lean_dec.exit5:                                   ; preds = %51, %50, %48, %l_List_beq___at_Lean_beqExternAttrData____x40_Lean_Compiler_ExternAttr___hyg_382____spec__1.exit
  %52 = ptrtoint ptr %0 to i64
  %53 = and i64 %52, 1
  %.not8 = icmp eq i64 %53, 0
  br i1 %.not8, label %54, label %lean_dec.exit

54:                                               ; preds = %lean_dec.exit5
  %55 = load i32, ptr %0, align 4, !tbaa !10
  %56 = icmp sgt i32 %55, 1
  br i1 %56, label %57, label %59, !prof !13

57:                                               ; preds = %54
  %58 = add nsw i32 %55, -1
  store i32 %58, ptr %0, align 4, !tbaa !10
  br label %lean_dec.exit

59:                                               ; preds = %54
  %.not.i6 = icmp eq i32 %55, 0
  br i1 %.not.i6, label %lean_dec.exit, label %60

60:                                               ; preds = %59
  tail call void @lean_dec_ref_cold(ptr noundef nonnull %0) #6
  br label %lean_dec.exit

lean_dec.exit:                                    ; preds = %60, %59, %57, %lean_dec.exit5
  %61 = inttoptr i64 %.1.i to ptr
  ret ptr %61
}